target datalayout = "e-m:e-p270:32:32-p271:32:32-p272:64:64-i64:64-i128:128-f80:128-n8:16:32:64-S128"
target triple = "x86_64-pc-linux-gnu"

%"class.cv::Mat" = type { i32, i32, i32, i32, ptr, ptr, ptr, ptr, ptr, ptr, %"struct.cv::MatSize", %"struct.cv::MatStep" }
%"struct.cv::MatSize" = type { ptr }
%"struct.cv::MatStep" = type { ptr, [2 x i64] }
%"class.cv::ccm::Operations" = type { ptr, %"class.std::vector" }
%"class.std::vector" = type { %"struct.std::_Vector_base" }
%"struct.std::_Vector_base" = type { %"struct.std::_Vector_base<cv::ccm::Operation, std::allocator<cv::ccm::Operation>>::_Vector_impl" }
%"struct.std::_Vector_base<cv::ccm::Operation, std::allocator<cv::ccm::Operation>>::_Vector_impl" = type { %"struct.std::_Vector_base<cv::ccm::Operation, std::allocator<cv::ccm::Operation>>::_Vector_impl_data" }
%"struct.std::_Vector_base<cv::ccm::Operation, std::allocator<cv::ccm::Operation>>::_Vector_impl_data" = type { ptr, ptr, ptr }
%"class.cv::ccm::ColorSpace" = type { ptr, %"class.cv::ccm::IO", %"class.std::__cxx11::basic_string", i8, %"class.cv::ccm::Operations", %"class.cv::ccm::Operations", ptr, ptr }
%"class.cv::ccm::IO" = type { ptr, %"class.std::__cxx11::basic_string", %"class.std::__cxx11::basic_string" }
%"class.std::__cxx11::basic_string" = type { %"struct.std::__cxx11::basic_string<char>::_Alloc_hider", i64, %union.anon }
%"struct.std::__cxx11::basic_string<char>::_Alloc_hider" = type { ptr }
%union.anon = type { i64, [8 x i8] }
%"class.cv::ccm::RGBBase_" = type { %"class.cv::ccm::ColorSpace", double, double, double, double, double, double, %"class.cv::Mat", %"class.cv::Mat" }
%"class.cv::ccm::sRGBBase_" = type { %"class.cv::ccm::RGBBase_", double, double, double, double, double, double }

; Function Attrs: mustprogress nounwind uwtable
define hidden void @_ZN2cv3ccm5sRGB_12setParameterEv(ptr noundef nonnull align 8 dereferenceable(488) %0) unnamed_addr #8 align 2 {
  %2 = alloca ptr, align 8
  store ptr %0, ptr %2, align 8, !tbaa !166
  %3 = load ptr, ptr %2, align 8
  %4 = getelementptr inbounds nuw %"class.cv::ccm::RGBBase_", ptr %3, i32 0, i32 1
  store double 6.400000e-01, ptr %4, align 8, !tbaa !62
  %5 = getelementptr inbounds nuw %"class.cv::ccm::RGBBase_", ptr %3, i32 0, i32 2
  store double 3.300000e-01, ptr %5, align 8, !tbaa !66
  %6 = getelementptr inbounds nuw %"class.cv::ccm::RGBBase_", ptr %3, i32 0, i32 3
  store double 3.000000e-01, ptr %6, align 8, !tbaa !71
  %7 = getelementptr inbounds nuw %"class.cv::ccm::RGBBase_", ptr %3, i32 0, i32 4
  store double 6.000000e-01, ptr %7, align 8, !tbaa !72
  %8 = getelementptr inbounds nuw %"class.cv::ccm::RGBBase_", ptr %3, i32 0, i32 5
  store double 1.500000e-01, ptr %8, align 8, !tbaa !73
  %9 = getelementptr inbounds nuw %"class.cv::ccm::RGBBase_", ptr %3, i32 0, i32 6
  store double 6.000000e-02, ptr %9, align 8, !tbaa !74
  %10 = getelementptr inbounds nuw %"class.cv::ccm::sRGBBase_", ptr %3, i32 0, i32 1
  store double 5.500000e-02, ptr %10, align 8, !tbaa !143
  %11 = getelementptr inbounds nuw %"class.cv::ccm::sRGBBase_", ptr %3, i32 0, i32 2
  store double 2.400000e+00, ptr %11, align 8, !tbaa !146
  ret void
}