; Function Attrs: mustprogress nofree norecurse nosync nounwind willreturn memory(argmem: write) uwtable
define hidden void @_ZN2cv3ccm5sRGB_12setParameterEv(ptr noundef nonnull writeonly align 8 captures(none) dereferenceable(488) initializes((200, 248), (440, 456)) %0) unnamed_addr #11 align 2 {
  %2 = getelementptr inbounds nuw i8, ptr %0, i64 200
  store double 6.400000e-01, ptr %2, align 8, !tbaa !50
  %3 = getelementptr inbounds nuw i8, ptr %0, i64 208
  store double 3.300000e-01, ptr %3, align 8, !tbaa !53
  %4 = getelementptr inbounds nuw i8, ptr %0, i64 216
  store double 3.000000e-01, ptr %4, align 8, !tbaa !69
  %5 = getelementptr inbounds nuw i8, ptr %0, i64 224
  store double 6.000000e-01, ptr %5, align 8, !tbaa !70
  %6 = getelementptr inbounds nuw i8, ptr %0, i64 232
  store double 1.500000e-01, ptr %6, align 8, !tbaa !71
  %7 = getelementptr inbounds nuw i8, ptr %0, i64 240
  store double 6.000000e-02, ptr %7, align 8, !tbaa !72
  %8 = getelementptr inbounds nuw i8, ptr %0, i64 440
  store double 5.500000e-02, ptr %8, align 8, !tbaa !127
  %9 = getelementptr inbounds nuw i8, ptr %0, i64 448
  store double 2.400000e+00, ptr %9, align 8, !tbaa !130
  ret void
}